(lp0
((idata_reader
WeatherData
p1
(dp2
S'temperature'
p3
I49
sS'hour'
p4
I0
sS'ERCOT'
p5
F50567.07
sS'sunForecast'
p6
S'Mostly Cloudy'
p7
sS'month'
p8
I1
sS'windSpeed'
p9
F5.81135449262405
sS'sunlight'
p10
F0.0
sS'year'
p11
I2018
sS'day'
p12
I1
sS'minute'
p13
I56
sb(lp14
F22402.566024311243
aF38.46093754619618
aF9.42667488
a(I25000
I49
I9
tp15
(lp16
F22842.515402310288
aF86.11521173131807
aF9.85334976
aF50567.07
tp17
a((idata_reader
WeatherData
p18
(dp19
g3
I50
sg4
I1
sg5
F50617.09
sg6
S'Mostly Cloudy'
p20
sg8
I1
sg9
F7.599463567277604
sg10
F0.356119792094409
sg11
I2018
sg12
I1
sg13
I56
sb(lp21
F42228.814156553315
aF68.73077264743787
aF9.42667488
a(I22000
I49
I9
tp22
(lp23
F43071.3295588636
aF105.84598437875594
aF10.28002464
aF50617.09
tp24
a((idata_reader
WeatherData
p25
(dp26
g3
I50
sg4
I2
sg5
F50694.3
sg6
S'Partly Cloudy / Windy'
p27
sg8
I1
sg9
F9.387572641931158
sg10
F0.6363960430318321
sg11
I2018
sg12
I1
sg13
I56
sb(lp28
F26593.07247176535
aF90.81680542778253
aF9.42667488
a(I43000
I49
I10
tp29
(lp30
F26664.402030628953
aF147.66278980653846
aF9.70669952
aF50694.3
tp31
a((idata_reader
WeatherData
p32
(dp33
g3
I52
sg4
I3
sg5
F50999.59
sg6
S'Fair'
p34
sg8
I1
sg9
F8.046490835940991
sg10
F0.8408963465535418
sg11
I2018
sg12
I1
sg13
I56
sb(lp35
F55479.751845673716
aF100.50531846207392
aF9.42667488
a(I26000
I49
I9
tp36
(lp37
F56144.15387630267
aF199.16810826861237
aF10.133374400000001
aF50999.59
tp38
a((idata_reader
WeatherData
p39
(dp40
g3
I53
sg4
I4
sg5
F51723.73
sg6
S'Fair / Windy'
p41
sg8
I1
sg9
F10.281627179257935
sg10
F0.9306048005747585
sg11
I2018
sg12
I1
sg13
I56
sb(lp42
F55479.751845673716
aF106.14404371282664
aF9.42667488
a(I51000
I49
I10
tp43
(lp44
F60623.905721976385
aF256.312151981439
aF9.560049280000001
aF51723.73
tp45
a((idata_reader
WeatherData
p46
(dp47
g3
I53
sg4
I5
sg5
F52955.63
sg6
S'Fair / Windy'
p48
sg8
I1
sg9
F10.281627179257935
sg10
F0.9828152195632096
sg11
I2018
sg12
I1
sg13
I56
sb(lp49
F48553.332592482424
aF107.99999999999712
aF9.42667488
a(I52000
I49
I9
tp50
(lp51
F57177.23831445881
aF315.3121519814361
aF9.986724160000001
aF52955.63
tp52
a((idata_reader
WeatherData
p53
(dp54
g3
I53
sg4
I6
sg5
F54303.08
sg6
S'Fair / Windy'
p55
sg8
I1
sg9
F9.834599910594546
sg10
F0.9999999999999732
sg11
I2018
sg12
I1
sg13
I56
sb(lp56
F55479.751845673716
aF95.52964770654081
aF9.42667488
a(I54000
I49
I9
tp57
(lp58
F58656.990160132525
aF361.8417996879769
aF10.413399040000002
aF54303.08
tp59
a((idata_reader
WeatherData
p60
(dp61
g3
I53
sg4
I7
sg5
F55099.27
sg6
S'Partly Cloudy / Windy'
p62
sg8
I1
sg9
F10.281627179257935
sg10
F0.8845337750605631
sg11
I2018
sg12
I1
sg13
I56
sb(lp63
F48553.332592482424
aF90.4548036824317
aF9.42667488
a(I55000
I49
I10
tp64
(lp65
F52210.32275261495
aF403.2966033704086
aF9.840073920000002
aF55099.27
tp66
a((idata_reader
WeatherData
p67
(dp68
g3
I51
sg4
I8
sg5
F55553.89
sg6
S'Partly Cloudy / Windy'
p69
sg8
I1
sg9
F9.834599910594546
sg10
F0.8375444785410342
sg11
I2018
sg12
I1
sg13
I56
sb(lp70
F12512.241231571354
aF81.73515159562159
aF9.42667488
a(I52000
I49
I9
tp71
(lp72
F12722.563984186303
aF436.0317549660302
aF10.266748800000002
aF55553.89
tp73
a((idata_reader
WeatherData
p74
(dp75
g3
I49
sg4
I9
sg5
F56070.39
sg6
S'Partly Cloudy'
p76
sg8
I1
sg9
F6.258381761287438
sg10
F0.7568069592187184
sg11
I2018
sg12
I1
sg13
I56
sb(lp77
F12512.241231571354
aF53.45729787283662
aF9.42667488
a(I49
I49
I10
tp78
(lp79
F25185.805215757657
aF440.48905283886677
aF9.693423680000002
aF56070.39
tp80
a((idata_reader
WeatherData
p81
(dp82
g3
I49
sg4
I10
sg5
F55948.92
sg6
S'Mostly Cloudy'
p83
sg8
I1
sg9
F6.258381761287438
sg10
F0.4949749803040428
sg11
I2018
sg12
I1
sg13
I56
sb(lp84
F2334.6455942290568
aF49.44983715477787
aF9.42667488
a(I25000
I49
I9
tp85
(lp86
F2520.4508099867135
aF440.93888999364464
aF10.120098560000002
aF55948.92
tp87
a((idata_reader
WeatherData
p88
(dp89
g3
I49
sg4
I11
sg5
F55277.73
sg6
S'Partly Cloudy'
p90
sg8
I1
sg9
F3.5762181493071075
sg10
F0.45786886254423953
sg11
I2018
sg12
I1
sg13
I56
sb(lp91
F1564.0301539464192
aF0.06111874474951386
aF9.42667488
a(I49
I49
I10
tp92
(lp93
F4035.4809639331324
aF392.0000087383942
aF9.546773440000003
aF55277.73
tp94
a((idata_reader
WeatherData
p95
(dp96
g3
I48
sg4
I12
sg5
F54097.8
sg6
S'Mostly Cloudy'
p97
sg8
I1
sg9
F3.129190880643719
sg10
F0.0005659143032362395
sg11
I2018
sg12
I1
sg13
I56
sb(lp98
F1564.0301539464192
aF0.0
aF9.42667488
a(I49
I49
I9
tp99
(lp100
F5550.511117879551
aF343.0000087383942
aF9.973448320000003
aF54097.8
tp101
a((idata_reader
WeatherData
p102
(dp103
g3
I47
sg4
I13
sg5
F52638.08
sg6
S'Mostly Cloudy'
p104
sg8
I1
sg9
F3.129190880643719
sg10
F0.0
sg11
I2018
sg12
I1
sg13
I56
sb(lp105
F3324.134058970669
aF0.0
aF9.42667488
a(I49
I49
I9
tp106
(lp107
F8825.64517685022
aF294.0000087383942
aF10.400123200000003
aF52638.08
tp108
a((idata_reader
WeatherData
p109
(dp110
g3
I47
sg4
I14
sg5
F51448.2
sg6
S'Mostly Cloudy'
p111
sg8
I1
sg9
F4.023245417970496
sg10
F0.0
sg11
I2018
sg12
I1
sg13
I56
sb(lp112
F1564.0301539464192
aF0.0
aF9.42667488
a(I49
I49
I10
tp113
(lp114
F10340.67533079664
aF245.00000873839417
aF9.826798080000003
aF51448.2
tp115
a((idata_reader
WeatherData
p116
(dp117
g3
I47
sg4
I15
sg5
F50789.64
sg6
S'Mostly Cloudy'
p118
sg8
I1
sg9
F3.129190880643719
sg10
F0.0
sg11
I2018
sg12
I1
sg13
I56
sb(lp119
F12512.241231571354
aF0.0
aF9.42667488
a(I49
I49
I9
tp120
(lp121
F22803.916562367995
aF196.00000873839417
aF10.253472960000003
aF50789.64
tp122
a((idata_reader
WeatherData
p123
(dp124
g3
I47
sg4
I16
sg5
F51352.32
sg6
S'Light Rain'
p125
sg8
I1
sg9
F6.258381761287438
sg10
F0.0
sg11
I2018
sg12
I1
sg13
I56
sb(lp126
F569.9818345285782
aF0.0
aF9.42667488
a(I22000
I49
I10
tp127
(lp128
F1373.8983968965729
aF147.00000873839417
aF9.680147840000004
aF51352.32
tp129
a((idata_reader
WeatherData
p130
(dp131
g3
I45
sg4
I17
sg5
F54212.0
sg6
S'Cloudy'
p132
sg8
I1
sg9
F2.235136343316942
sg10
F0.0
sg11
I2018
sg12
I1
sg13
I56
sb(lp133
F1564.0301539464192
aF0.0
aF9.42667488
a(I49
I49
I9
tp134
(lp135
F2888.928550842992
aF98.00000873839417
aF10.106822720000004
aF54212.0
tp136
a((idata_reader
WeatherData
p137
(dp138
g3
I45
sg4
I18
sg5
F57004.48
sg6
S'Mostly Cloudy'
p139
sg8
I1
sg9
F3.129190880643719
sg10
F0.0
sg11
I2018
sg12
I1
sg13
I56
sb(lp140
F1564.0301539464192
aF0.0
aF9.42667488
a(I49
I49
I10
tp141
(lp142
F4403.958704789411
aF49.00000873839417
aF9.533497600000004
aF57004.48
tp143
a((idata_reader
WeatherData
p144
(dp145
g3
I46
sg4
I19
sg5
F57297.4
sg6
S'Mostly Cloudy'
p146
sg8
I1
sg9
F3.129190880643719
sg10
F0.0
sg11
I2018
sg12
I1
sg13
I56
sb(lp147
F2334.6455942290568
aF0.0
aF9.42667488
a(I49
I49
I9
tp148
(lp149
F6689.604299018468
aF8.738394171814434e-06
aF9.960172480000004
aF57297.4
tp150
a((idata_reader
WeatherData
p151
(dp152
g3
I45
sg4
I20
sg5
F57246.96
sg6
S'Mostly Cloudy'
p153
sg8
I1
sg9
F3.5762181493071075
sg10
F0.0
sg11
I2018
sg12
I1
sg13
I56
sb(lp154
F0.0
aF0.0
aF9.42667488
a(I49
I0
I9
tp155
(lp156
F6640.604299018468
aF8.738394171814434e-06
aF10.386847360000004
aF57246.96
tp157
a((idata_reader
WeatherData
p158
(dp159
g3
I45
sg4
I21
sg5
F56339.31
sg6
S'Cloudy'
p160
sg8
I1
sg9
F0.0
sg10
F0.0
sg11
I2018
sg12
I1
sg13
I56
sb(lp161
F984.928610065383
aF0.0
aF9.42667488
a(I49
I0
I10
tp162
(lp163
F7576.532909083851
aF8.738394171814434e-06
aF9.813522240000005
aF56339.31
tp164
a((idata_reader
WeatherData
p165
(dp166
g3
I44
sg4
I22
sg5
F54402.04
sg6
S'Mostly Cloudy'
p167
sg8
I1
sg9
F2.6821636119803305
sg10
F0.0
sg11
I2018
sg12
I1
sg13
I56
sb(lp168
F1564.0301539464192
aF0.0
aF9.42667488
a(I49
I0
I9
tp169
(lp170
F9091.563063030271
aF8.738394171814434e-06
aF10.240197120000005
aF54402.04
tp171
a((idata_reader
WeatherData
p172
(dp173
g3
I44
sg4
I23
sg5
F52550.8
sg6
S'Mostly Cloudy'
p174
sg8
I1
sg9
F3.129190880643719
sg10
F0.0
sg11
I2018
sg12
I1
sg13
I56
sb(lp175
F569.9818345285782
aF0.0
aF9.42667488
a(I49
I0
I10
tp176
(lp177
F9612.54489755885
aF8.738394171814434e-06
aF9.666872000000005
aF52550.8
tp178
a((idata_reader
WeatherData
p179
(dp180
g3
I44
sg4
I0
sg5
F53932.18
sg6
S'Mostly Cloudy'
p181
sg8
I1
sg9
F2.235136343316942
sg10
F0.0
sg11
I2018
sg12
I3
sg13
I56
sb(lp182
F123.11607625817288
aF38.46093754619618
aF9.42667488
a(I49
I0
I9
tp183
(lp184
F9686.660973817023
aF38.46094628459035
aF10.093546880000005
aF53932.18
tp185
a((idata_reader
WeatherData
p186
(dp187
g3
I45
sg4
I1
sg5
F50492.67
sg6
S'Mostly Cloudy'
p188
sg8
I1
sg9
F1.3410818059901652
sg10
F0.356119792094409
sg11
I2018
sg12
I2
sg13
I56
sb(lp189
F1564.0301539464192
aF53.45726761467388
aF9.42667488
a(I49
I38
I10
tp190
(lp191
F11201.691127763443
aF53.91821389926423
aF9.520221760000005
aF50492.67
tp192
a((idata_reader
WeatherData
p193
(dp194
g3
I47
sg4
I2
sg5
F50220.58
sg6
S'Mostly Cloudy'
p195
sg8
I1
sg9
F3.129190880643719
sg10
F0.4949747001358693
sg11
I2018
sg12
I2
sg13
I56
sb(lp196
F3324.134058970669
aF63.57176379944776
aF9.42667488
a(I49
I49
I9
tp197
(lp198
F14476.825186734111
aF68.48997769871198
aF9.946896640000006
aF50220.58
tp199
a((idata_reader
WeatherData
p200
(dp201
g3
I48
sg4
I3
sg5
F50376.2
sg6
S'Mostly Cloudy'
p202
sg8
I1
sg9
F4.023245417970496
sg10
F0.5886274425874792
sg11
I2018
sg12
I2
sg13
I56
sb(lp203
F2334.6455942290568
aF70.35372292345174
aF9.42667488
a(I49
I49
I9
tp204
(lp205
F16762.47078096317
aF89.84370062216372
aF10.373571520000006
aF50376.2
tp206
a((idata_reader
WeatherData
p207
(dp208
g3
I52
sg4
I4
sg5
F51246.18
sg6
S'Mostly Cloudy'
p209
sg8
I1
sg9
F3.5762181493071075
sg10
F0.6514233604023308
sg11
I2018
sg12
I2
sg13
I56
sb(lp210
F15389.509532271619
aF84.91523497026132
aF9.42667488
a(I49
I49
I10
tp211
(lp212
F32102.980313234788
aF125.75893559242505
aF9.800246400000006
aF51246.18
tp213
a((idata_reader
WeatherData
p214
(dp215
g3
I52
sg4
I5
sg5
F53359.29
sg6
S'Cloudy'
p216
sg8
I1
sg9
F6.705409029950827
sg10
F0.7862521756505677
sg11
I2018
sg12
I2
sg13
I56
sb(lp217
F15389.509532271619
aF86.39999999999769
aF9.42667488
a(I32000
I49
I9
tp218
(lp219
F15492.489845506407
aF163.15893559242272
aF10.226921280000006
aF53359.29
tp220
a((idata_reader
WeatherData
p221
(dp222
g3
I51
sg4
I6
sg5
F56175.63
sg6
S'Cloudy'
p223
sg8
I1
sg9
F6.705409029950827
sg10
F0.7999999999999786
sg11
I2018
sg12
I2
sg13
I56
sb(lp224
F7879.428880523064
aF74.30083710508728
aF9.42667488
a(I49
I49
I10
tp225
(lp226
F23322.91872602947
aF188.45977269751
aF9.653596160000006
aF56175.63
tp227
a((idata_reader
WeatherData
p228
(dp229
g3
I52
sg4
I7
sg5
F57805.27
sg6
S'Mostly Cloudy'
p230
sg8
I1
sg9
F5.364327223960661
sg10
F0.6879707139359934
sg11
I2018
sg12
I2
sg13
I56
sb(lp231
F4559.854676228626
aF70.35373619744686
aF9.42667488
a(I23000
I49
I9
tp232
(lp233
F4882.773402258097
aF209.81350889495687
aF10.080271040000007
aF57805.27
tp234
a((idata_reader
WeatherData
p235
(dp236
g3
I51
sg4
I8
sg5
F58347.54
sg6
S'Mostly Cloudy'
p237
sg8
I1
sg9
F4.470272686633884
sg10
F0.6514234833096932
sg11
I2018
sg12
I2
sg13
I56
sb(lp238
F2334.6455942290568
aF63.571784574372344
aF9.42667488
a(I49
I49
I10
tp239
(lp240
F7168.418996487154
aF224.3852934693292
aF9.506945920000007
aF58347.54
tp241
a((idata_reader
WeatherData
p242
(dp243
g3
I51
sg4
I9
sg5
F58976.88
sg6
S'Mostly Cloudy'
p244
sg8
I1
sg9
F3.5762181493071075
sg10
F0.588627634947892
sg11
I2018
sg12
I2
sg13
I56
sb(lp245
F1564.0301539464192
aF53.45729787283662
aF9.42667488
a(I49
I49
I9
tp246
(lp247
F8683.449150433573
aF228.84259134216583
aF9.933620800000007
aF58976.88
tp248
a((idata_reader
WeatherData
p249
(dp250
g3
I50
sg4
I10
sg5
F59169.75
sg6
S'Mostly Cloudy'
p251
sg8
I1
sg9
F3.129190880643719
sg10
F0.4949749803040428
sg11
I2018
sg12
I2
sg13
I56
sb(lp252
F10018.000723674291
aF38.460984453716115
aF9.42667488
a(I49
I49
I9
tp253
(lp254
F18652.449874107864
aF218.30357579588195
aF10.360295680000007
aF59169.75
tp255
a((idata_reader
WeatherData
p256
(dp257
g3
I50
sg4
I11
sg5
F58728.07
sg6
S'Mostly Cloudy'
p258
sg8
I1
sg9
F5.81135449262405
sg10
F0.3561202264232974
sg11
I2018
sg12
I2
sg13
I56
sb(lp259
F3324.134058970669
aF0.06111874474951386
aF9.42667488
a(I49
I49
I10
tp260
(lp261
F21927.58393307853
aF169.36469454063146
aF9.786970560000007
aF58728.07
tp262
a((idata_reader
WeatherData
p263
(dp264
g3
I50
sg4
I12
sg5
F57943.44
sg6
S'Mostly Cloudy'
p265
sg8
I1
sg9
F4.023245417970496
sg10
F0.0005659143032362395
sg11
I2018
sg12
I2
sg13
I56
sb(lp266
F2334.6455942290568
aF0.0
aF9.42667488
a(I21000
I49
I9
tp267
(lp268
F3262.229527307588
aF120.36469454063146
aF10.213645440000008
aF57943.44
tp269
a((idata_reader
WeatherData
p270
(dp271
g3
I49
sg4
I13
sg5
F57341.89
sg6
S'Light Rain'
p272
sg8
I1
sg9
F3.5762181493071075
sg10
F0.0
sg11
I2018
sg12
I2
sg13
I56
sb(lp273
F0.0
aF0.0
aF9.42667488
a(I49
I49
I10
tp274
(lp275
F3213.229527307588
aF71.36469454063146
aF9.640320320000008
aF57341.89
tp276
a((idata_reader
WeatherData
p277
(dp278
g3
I49
sg4
I14
sg5
F56978.44
sg6
S'Light Rain'
p279
sg8
I1
sg9
F0.0
sg10
F0.0
sg11
I2018
sg12
I2
sg13
I56
sb(lp280
F123.11607625817288
aF0.0
aF9.42667488
a(I49
I49
I9
tp281
(lp282
F3287.345603565761
aF22.36469454063146
aF10.066995200000008
aF56978.44
tp283
a((idata_reader
WeatherData
p284
(dp285
g3
I49
sg4
I15
sg5
F57030.79
sg6
S'Light Rain'
p286
sg8
I1
sg9
F1.3410818059901652
sg10
F0.0
sg11
I2018
sg12
I2
sg13
I56
sb(lp287
F569.9818345285782
aF0.0
aF9.42667488
a(I49
I22
I10
tp288
(lp289
F3808.3274380943394
aF0.36469454063146145
aF9.493670080000008
aF57030.79
tp290
a((idata_reader
WeatherData
p291
(dp292
g3
I48
sg4
I16
sg5
F57885.46
sg6
S'Rain'
p293
sg8
I1
sg9
F2.235136343316942
sg10
F0.0
sg11
I2018
sg12
I2
sg13
I56
sb(lp294
F984.928610065383
aF0.0
aF9.42667488
a(I49
I0
I9
tp295
(lp296
F4744.256048159723
aF0.36469454063146145
aF9.920344960000008
aF57885.46
tp297
a((idata_reader
WeatherData
p298
(dp299
g3
I49
sg4
I17
sg5
F60183.75
sg6
S'Cloudy'
p300
sg8
I1
sg9
F2.6821636119803305
sg10
F0.0
sg11
I2018
sg12
I2
sg13
I56
sb(lp301
F569.9818345285782
aF0.0
aF9.42667488
a(I49
I0
I9
tp302
(lp303
F5265.237882688301
aF0.36469454063146145
aF10.347019840000009
aF60183.75
tp304
a((idata_reader
WeatherData
p305
(dp306
g3
I48
sg4
I18
sg5
F61948.68
sg6
S'Cloudy'
p307
sg8
I1
sg9
F2.235136343316942
sg10
F0.0
sg11
I2018
sg12
I2
sg13
I56
sb(lp308
F569.9818345285782
aF0.0
aF9.42667488
a(I49
I0
I10
tp309
(lp310
F5786.21971721688
aF0.36469454063146145
aF9.773694720000009
aF61948.68
tp311
a((idata_reader
WeatherData
p312
(dp313
g3
I48
sg4
I19
sg5
F61781.61
sg6
S'Cloudy'
p314
sg8
I1
sg9
F2.235136343316942
sg10
F0.0
sg11
I2018
sg12
I2
sg13
I56
sb(lp315
F0.0
aF0.0
aF9.42667488
a(I49
I0
I9
tp316
(lp317
F5737.21971721688
aF0.36469454063146145
aF10.200369600000009
aF61781.61
tp318
a((idata_reader
WeatherData
p319
(dp320
g3
I48
sg4
I20
sg5
F61125.41
sg6
S'Light Rain'
p321
sg8
I1
sg9
F0.0
sg10
F0.0
sg11
I2018
sg12
I2
sg13
I56
sb(lp322
F18677.164753832454
aF0.0
aF9.42667488
a(I49
I0
I10
tp323
(lp324
F24365.384471049336
aF0.36469454063146145
aF9.62704448000001
aF61125.41
tp325
a((idata_reader
WeatherData
p326
(dp327
g3
I48
sg4
I21
sg5
F59549.12
sg6
S'Light Rain'
p328
sg8
I1
sg9
F7.152436298614215
sg10
F0.0
sg11
I2018
sg12
I2
sg13
I56
sb(lp329
F10018.000723674291
aF0.0
aF9.42667488
a(I24000
I0
I9
tp330
(lp331
F10383.385194723627
aF0.36469454063146145
aF10.05371936000001
aF59549.12
tp332
a((idata_reader
WeatherData
p333
(dp334
g3
I48
sg4
I22
sg5
F56984.71
sg6
S'Light Rain'
p335
sg8
I1
sg9
F5.81135449262405
sg10
F0.0
sg11
I2018
sg12
I2
sg13
I56
sb(lp336
F2334.6455942290568
aF0.0
aF9.42667488
a(I49
I0
I10
tp337
(lp338
F12669.030788952685
aF0.36469454063146145
aF9.48039424000001
aF56984.71
tp339
a((idata_reader
WeatherData
p340
(dp341
g3
I49
sg4
I23
sg5
F54990.74
sg6
S'Cloudy'
p342
sg8
I1
sg9
F3.5762181493071075
sg10
F0.0
sg11
I2018
sg12
I2
sg13
I56
sb(lp343
F2334.6455942290568
aF0.0
aF9.42667488
a(I49
I0
I9
tp344
(lp345
F14954.67638318174
aF0.36469454063146145
aF9.90706912000001
aF54990.74
tp346
a.