(lp0
((idata_reader
WeatherData
p1
(dp2
S'temperature'
p3
I49
sS'hour'
p4
I0
sS'ERCOT'
p5
F50567.07
sS'sunForecast'
p6
S'Mostly Cloudy'
p7
sS'month'
p8
I1
sS'windSpeed'
p9
F5.81135449262405
sS'sunlight'
p10
F0.0
sS'year'
p11
I2018
sS'day'
p12
I1
sS'minute'
p13
I56
sb(lp14
F10018.000723674291
aF0.0
aF9.42667488
a(I53
I18
I9
tp15
(lp16
F10018.29193995419
aF0.7815857066334999
aF9.85334976
aF50567.07
tp17
a((idata_reader
WeatherData
p18
(dp19
g3
I50
sg4
I1
sg5
F50617.09
sg6
S'Mostly Cloudy'
p20
sg8
I1
sg9
F7.599463567277604
sg10
F0.356119792094409
sg11
I2018
sg12
I1
sg13
I56
sb(lp21
F22402.566024311243
aF38.46093754619618
aF9.42667488
a(I9400
I0
I9
tp22
(lp23
F23020.857964265433
aF39.24252325282968
aF10.28002464
aF50617.09
tp24
a((idata_reader
WeatherData
p25
(dp26
g3
I50
sg4
I2
sg5
F50694.3
sg6
S'Partly Cloudy / Windy'
p27
sg8
I1
sg9
F9.387572641931158
sg10
F0.6363960430318321
sg11
I2018
sg12
I1
sg13
I56
sb(lp28
F42228.814156553315
aF68.73077264743787
aF9.42667488
a(I22700
I39
I10
tp29
(lp30
F42549.67212081875
aF68.97329590026754
aF9.70669952
aF50694.3
tp31
a((idata_reader
WeatherData
p32
(dp33
g3
I52
sg4
I3
sg5
F50999.59
sg6
S'Fair'
p34
sg8
I1
sg9
F8.046490835940991
sg10
F0.8408963465535418
sg11
I2018
sg12
I1
sg13
I56
sb(lp35
F26593.07247176535
aF90.81680542778253
aF9.42667488
a(I42300
I68
I9
tp36
(lp37
F26842.744592584102
aF91.79010132805007
aF10.133374400000001
aF50999.59
tp38
a((idata_reader
WeatherData
p39
(dp40
g3
I53
sg4
I4
sg5
F51723.73
sg6
S'Fair / Windy'
p41
sg8
I1
sg9
F10.281627179257935
sg10
F0.9306048005747585
sg11
I2018
sg12
I1
sg13
I56
sb(lp42
F55479.751845673716
aF100.50531846207392
aF9.42667488
a(I26200
I91
I10
tp43
(lp44
F56122.49643825782
aF101.29541979012399
aF9.560049280000001
aF51723.73
tp45
a((idata_reader
WeatherData
p46
(dp47
g3
I53
sg4
I5
sg5
F52955.63
sg6
S'Fair / Windy'
p48
sg8
I1
sg9
F10.281627179257935
sg10
F0.9828152195632096
sg11
I2018
sg12
I1
sg13
I56
sb(lp49
F55479.751845673716
aF106.14404371282664
aF9.42667488
a(I52800
I100
I9
tp50
(lp51
F58802.248283931534
aF107.43946350295063
aF9.986724160000001
aF52955.63
tp52
a((idata_reader
WeatherData
p53
(dp54
g3
I53
sg4
I6
sg5
F54303.08
sg6
S'Fair / Windy'
p55
sg8
I1
sg9
F9.834599910594546
sg10
F0.9999999999999732
sg11
I2018
sg12
I1
sg13
I56
sb(lp56
F48553.332592482424
aF107.99999999999712
aF9.42667488
a(I54200
I94
I9
tp57
(lp58
F53155.58087641396
aF121.43946350294775
aF10.413399040000002
aF54303.08
tp59
a((idata_reader
WeatherData
p60
(dp61
g3
I53
sg4
I7
sg5
F55099.27
sg6
S'Partly Cloudy / Windy'
p62
sg8
I1
sg9
F10.281627179257935
sg10
F0.8845337750605631
sg11
I2018
sg12
I1
sg13
I56
sb(lp63
F55479.751845673716
aF95.52964770654081
aF9.42667488
a(I52800
I100
I10
tp64
(lp65
F55835.332722087674
aF116.96911120948856
aF9.840073920000002
aF55099.27
tp66
a((idata_reader
WeatherData
p67
(dp68
g3
I51
sg4
I8
sg5
F55553.89
sg6
S'Partly Cloudy / Windy'
p69
sg8
I1
sg9
F9.834599910594546
sg10
F0.8375444785410342
sg11
I2018
sg12
I1
sg13
I56
sb(lp70
F48553.332592482424
aF90.4548036824317
aF9.42667488
a(I54900
I100
I9
tp71
(lp72
F49488.6653145701
aF107.42391489192026
aF10.266748800000002
aF55553.89
tp73
a((idata_reader
WeatherData
p74
(dp75
g3
I49
sg4
I9
sg5
F56070.39
sg6
S'Partly Cloudy'
p76
sg8
I1
sg9
F6.258381761287438
sg10
F0.7568069592187184
sg11
I2018
sg12
I1
sg13
I56
sb(lp77
F12512.241231571354
aF81.73515159562159
aF9.42667488
a(I49300
I100
I10
tp78
(lp79
F12700.906546141452
aF89.15906648754185
aF9.693423680000002
aF56070.39
tp80
a((idata_reader
WeatherData
p81
(dp82
g3
I49
sg4
I10
sg5
F55948.92
sg6
S'Mostly Cloudy'
p83
sg8
I1
sg9
F6.258381761287438
sg10
F0.4949749803040428
sg11
I2018
sg12
I1
sg13
I56
sb(lp84
F12512.241231571354
aF53.45729787283662
aF9.42667488
a(I12200
I89
I9
tp85
(lp86
F13013.147777712806
aF53.61636436037847
aF10.120098560000002
aF55948.92
tp87
a((idata_reader
WeatherData
p88
(dp89
g3
I49
sg4
I11
sg5
F55277.73
sg6
S'Partly Cloudy'
p90
sg8
I1
sg9
F3.5762181493071075
sg10
F0.45786886254423953
sg11
I2018
sg12
I1
sg13
I56
sb(lp91
F2334.6455942290568
aF49.44983715477787
aF9.42667488
a(I12900
I53
I10
tp92
(lp93
F2447.7933719418625
aF50.06620151515634
aF9.546773440000003
aF55277.73
tp94
a((idata_reader
WeatherData
p95
(dp96
g3
I48
sg4
I12
sg5
F54097.8
sg6
S'Mostly Cloudy'
p97
sg8
I1
sg9
F3.129190880643719
sg10
F0.0005659143032362395
sg11
I2018
sg12
I1
sg13
I56
sb(lp98
F1564.0301539464192
aF0.06111874474951386
aF9.42667488
a(I2400
I50
I9
tp99
(lp100
F1611.8235258882817
aF0.12732025990585052
aF9.973448320000003
aF54097.8
tp101
a((idata_reader
WeatherData
p102
(dp103
g3
I47
sg4
I13
sg5
F52638.08
sg6
S'Mostly Cloudy'
p104
sg8
I1
sg9
F3.129190880643719
sg10
F0.0
sg11
I2018
sg12
I1
sg13
I56
sb(lp105
F1564.0301539464192
aF0.0
aF9.42667488
a(I1000
I0
I9
tp106
(lp107
F2175.853679834701
aF0.12732025990585052
aF10.400123200000003
aF52638.08
tp108
a((idata_reader
WeatherData
p109
(dp110
g3
I47
sg4
I14
sg5
F51448.2
sg6
S'Mostly Cloudy'
p111
sg8
I1
sg9
F4.023245417970496
sg10
F0.0
sg11
I2018
sg12
I1
sg13
I56
sb(lp112
F3324.134058970669
aF0.0
aF9.42667488
a(I1700
I0
I10
tp113
(lp114
F3799.9877388053696
aF0.12732025990585052
aF9.826798080000003
aF51448.2
tp115
a((idata_reader
WeatherData
p116
(dp117
g3
I47
sg4
I15
sg5
F50789.64
sg6
S'Mostly Cloudy'
p118
sg8
I1
sg9
F3.129190880643719
sg10
F0.0
sg11
I2018
sg12
I1
sg13
I56
sb(lp119
F1564.0301539464192
aF0.0
aF9.42667488
a(I3100
I0
I9
tp120
(lp121
F2264.017892751789
aF0.12732025990585052
aF10.253472960000003
aF50789.64
tp122
a((idata_reader
WeatherData
p123
(dp124
g3
I47
sg4
I16
sg5
F51352.32
sg6
S'Light Rain'
p125
sg8
I1
sg9
F6.258381761287438
sg10
F0.0
sg11
I2018
sg12
I1
sg13
I56
sb(lp126
F12512.241231571354
aF0.0
aF9.42667488
a(I1700
I0
I10
tp127
(lp128
F13076.259124323144
aF0.12732025990585052
aF9.680147840000004
aF51352.32
tp129
a((idata_reader
WeatherData
p130
(dp131
g3
I45
sg4
I17
sg5
F54212.0
sg6
S'Cloudy'
p132
sg8
I1
sg9
F2.235136343316942
sg10
F0.0
sg11
I2018
sg12
I1
sg13
I56
sb(lp133
F569.9818345285782
aF0.0
aF9.42667488
a(I12900
I0
I9
tp134
(lp135
F746.2409588517219
aF0.12732025990585052
aF10.106822720000004
aF54212.0
tp136
a((idata_reader
WeatherData
p137
(dp138
g3
I45
sg4
I18
sg5
F57004.48
sg6
S'Mostly Cloudy'
p139
sg8
I1
sg9
F3.129190880643719
sg10
F0.0
sg11
I2018
sg12
I1
sg13
I56
sb(lp140
F1564.0301539464192
aF0.0
aF9.42667488
a(I700
I0
I10
tp141
(lp142
F1610.271112798141
aF0.12732025990585052
aF9.533497600000004
aF57004.48
tp143
a((idata_reader
WeatherData
p144
(dp145
g3
I46
sg4
I19
sg5
F57297.4
sg6
S'Mostly Cloudy'
p146
sg8
I1
sg9
F3.129190880643719
sg10
F0.0
sg11
I2018
sg12
I1
sg13
I56
sb(lp147
F1564.0301539464192
aF0.0
aF9.42667488
a(I1000
I0
I9
tp148
(lp149
F2174.30126674456
aF0.12732025990585052
aF9.960172480000004
aF57297.4
tp150
a((idata_reader
WeatherData
p151
(dp152
g3
I45
sg4
I20
sg5
F57246.96
sg6
S'Mostly Cloudy'
p153
sg8
I1
sg9
F3.5762181493071075
sg10
F0.0
sg11
I2018
sg12
I1
sg13
I56
sb(lp154
F2334.6455942290568
aF0.0
aF9.42667488
a(I1700
I0
I9
tp155
(lp156
F2808.946860973617
aF0.12732025990585052
aF10.386847360000004
aF57246.96
tp157
a((idata_reader
WeatherData
p158
(dp159
g3
I45
sg4
I21
sg5
F56339.31
sg6
S'Cloudy'
p160
sg8
I1
sg9
F0.0
sg10
F0.0
sg11
I2018
sg12
I1
sg13
I56
sb(lp161
F0.0
aF0.0
aF9.42667488
a(I2400
I0
I10
tp162
(lp163
F408.9468609736168
aF0.12732025990585052
aF9.813522240000005
aF56339.31
tp164
a((idata_reader
WeatherData
p165
(dp166
g3
I44
sg4
I22
sg5
F54402.04
sg6
S'Mostly Cloudy'
p167
sg8
I1
sg9
F2.6821636119803305
sg10
F0.0
sg11
I2018
sg12
I1
sg13
I56
sb(lp168
F984.928610065383
aF0.0
aF9.42667488
a(I400
I0
I9
tp169
(lp170
F993.8754710389999
aF0.12732025990585052
aF10.240197120000005
aF54402.04
tp171
a((idata_reader
WeatherData
p172
(dp173
g3
I44
sg4
I23
sg5
F52550.8
sg6
S'Mostly Cloudy'
p174
sg8
I1
sg9
F3.129190880643719
sg10
F0.0
sg11
I2018
sg12
I1
sg13
I56
sb(lp175
F1564.0301539464192
aF0.0
aF9.42667488
a(I950
I0
I10
tp176
(lp177
F1607.905624985419
aF0.12732025990585052
aF9.666872000000005
aF52550.8
tp178
a((idata_reader
WeatherData
p179
(dp180
g3
I44
sg4
I0
sg5
F51180.17
sg6
S'Mostly Cloudy'
p181
sg8
I1
sg9
F2.235136343316942
sg10
F0.0
sg11
I2018
sg12
I2
sg13
I56
sb(lp182
F569.9818345285782
aF0.0
aF9.42667488
a(I1000
I0
I9
tp183
(lp184
F1177.8874595139973
aF0.12732025990585052
aF10.093546880000005
aF51180.17
tp185
a((idata_reader
WeatherData
p186
(dp187
g3
I45
sg4
I1
sg5
F50492.67
sg6
S'Mostly Cloudy'
p188
sg8
I1
sg9
F1.3410818059901652
sg10
F0.356119792094409
sg11
I2018
sg12
I2
sg13
I56
sb(lp189
F123.11607625817288
aF38.46093754619618
aF9.42667488
a(I1000
I0
I10
tp190
(lp191
F301.0035357721702
aF38.58825780610203
aF9.520221760000005
aF50492.67
tp192
a((idata_reader
WeatherData
p193
(dp194
g3
I47
sg4
I2
sg5
F50220.58
sg6
S'Mostly Cloudy'
p195
sg8
I1
sg9
F3.129190880643719
sg10
F0.4949747001358693
sg11
I2018
sg12
I2
sg13
I56
sb(lp196
F1564.0301539464192
aF53.45726761467388
aF9.42667488
a(I300
I38
I9
tp197
(lp198
F1565.0336897185894
aF54.04552542077591
aF9.946896640000006
aF50220.58
tp199
a((idata_reader
WeatherData
p200
(dp201
g3
I48
sg4
I3
sg5
F50376.2
sg6
S'Mostly Cloudy'
p202
sg8
I1
sg9
F4.023245417970496
sg10
F0.5886274425874792
sg11
I2018
sg12
I2
sg13
I56
sb(lp203
F3324.134058970669
aF63.57176379944776
aF9.42667488
a(I1000
I54
I9
tp204
(lp205
F3889.167748689258
aF63.61728922022367
aF10.373571520000006
aF50376.2
tp206
a((idata_reader
WeatherData
p207
(dp208
g3
I52
sg4
I4
sg5
F51246.18
sg6
S'Mostly Cloudy'
p209
sg8
I1
sg9
F3.5762181493071075
sg10
F0.6514233604023308
sg11
I2018
sg12
I2
sg13
I56
sb(lp210
F2334.6455942290568
aF70.35372292345174
aF9.42667488
a(I3800
I63
I10
tp211
(lp212
F2423.813342918315
aF70.97101214367541
aF9.800246400000006
aF51246.18
tp213
a((idata_reader
WeatherData
p214
(dp215
g3
I52
sg4
I5
sg5
F53359.29
sg6
S'Cloudy'
p216
sg8
I1
sg9
F6.705409029950827
sg10
F0.7862521756505677
sg11
I2018
sg12
I2
sg13
I56
sb(lp217
F15389.509532271619
aF84.91523497026132
aF9.42667488
a(I2400
I70
I9
tp218
(lp219
F15413.322875189933
aF85.88624711393673
aF10.226921280000006
aF53359.29
tp220
a((idata_reader
WeatherData
p221
(dp222
g3
I51
sg4
I6
sg5
F56175.63
sg6
S'Cloudy'
p223
sg8
I1
sg9
F6.705409029950827
sg10
F0.7999999999999786
sg11
I2018
sg12
I2
sg13
I56
sb(lp224
F15389.509532271619
aF86.39999999999769
aF9.42667488
a(I15000
I85
I10
tp225
(lp226
F15802.832407461552
aF87.28624711393442
aF9.653596160000006
aF56175.63
tp227
a((idata_reader
WeatherData
p228
(dp229
g3
I52
sg4
I7
sg5
F57805.27
sg6
S'Mostly Cloudy'
p230
sg8
I1
sg9
F5.364327223960661
sg10
F0.6879707139359934
sg11
I2018
sg12
I2
sg13
I56
sb(lp231
F7879.428880523064
aF74.30083710508728
aF9.42667488
a(I15700
I87
I9
tp232
(lp233
F7982.2612879846165
aF74.5870842190217
aF10.080271040000007
aF57805.27
tp234
a((idata_reader
WeatherData
p235
(dp236
g3
I51
sg4
I8
sg5
F58347.54
sg6
S'Mostly Cloudy'
p237
sg8
I1
sg9
F4.470272686633884
sg10
F0.6514234833096932
sg11
I2018
sg12
I2
sg13
I56
sb(lp238
F4559.854676228626
aF70.35373619744686
aF9.42667488
a(I7300
I74
I10
tp239
(lp240
F5242.1159642132425
aF70.94082041646857
aF9.506945920000007
aF58347.54
tp241
a((idata_reader
WeatherData
p242
(dp243
g3
I51
sg4
I9
sg5
F58976.88
sg6
S'Mostly Cloudy'
p244
sg8
I1
sg9
F3.5762181493071075
sg10
F0.588627634947892
sg11
I2018
sg12
I2
sg13
I56
sb(lp245
F2334.6455942290568
aF63.571784574372344
aF9.42667488
a(I5200
I70
I9
tp246
(lp247
F2376.7615584422992
aF64.51260499084091
aF9.933620800000007
aF58976.88
tp248
a((idata_reader
WeatherData
p249
(dp250
g3
I50
sg4
I10
sg5
F59169.75
sg6
S'Mostly Cloudy'
p251
sg8
I1
sg9
F3.129190880643719
sg10
F0.4949749803040428
sg11
I2018
sg12
I2
sg13
I56
sb(lp252
F1564.0301539464192
aF53.45729787283662
aF9.42667488
a(I1700
I64
I9
tp253
(lp254
F2240.791712388718
aF53.96990286367753
aF10.360295680000007
aF59169.75
tp255
a((idata_reader
WeatherData
p256
(dp257
g3
I50
sg4
I11
sg5
F58728.07
sg6
S'Mostly Cloudy'
p258
sg8
I1
sg9
F5.81135449262405
sg10
F0.3561202264232974
sg11
I2018
sg12
I2
sg13
I56
sb(lp259
F10018.000723674291
aF38.460984453716115
aF9.42667488
a(I1700
I53
I10
tp260
(lp261
F10558.79243606301
aF39.43088731739365
aF9.786970560000007
aF58728.07
tp262
a((idata_reader
WeatherData
p263
(dp264
g3
I50
sg4
I12
sg5
F57943.44
sg6
S'Mostly Cloudy'
p265
sg8
I1
sg9
F4.023245417970496
sg10
F0.0005659143032362395
sg11
I2018
sg12
I2
sg13
I56
sb(lp266
F3324.134058970669
aF0.06111874474951386
aF9.42667488
a(I10100
I39
I9
tp267
(lp268
F3782.9264950336783
aF0.49200606214316145
aF10.213645440000008
aF57943.44
tp269
a((idata_reader
WeatherData
p270
(dp271
g3
I49
sg4
I13
sg5
F57341.89
sg6
S'Light Rain'
p272
sg8
I1
sg9
F3.5762181493071075
sg10
F0.0
sg11
I2018
sg12
I2
sg13
I56
sb(lp273
F2334.6455942290568
aF0.0
aF9.42667488
a(I3100
I0
I10
tp274
(lp275
F3017.572089262735
aF0.49200606214316145
aF9.640320320000008
aF57341.89
tp276
a((idata_reader
WeatherData
p277
(dp278
g3
I49
sg4
I14
sg5
F56978.44
sg6
S'Light Rain'
p279
sg8
I1
sg9
F0.0
sg10
F0.0
sg11
I2018
sg12
I2
sg13
I56
sb(lp280
F0.0
aF0.0
aF9.42667488
a(I2400
I0
I9
tp281
(lp282
F617.5720892627351
aF0.49200606214316145
aF10.066995200000008
aF56978.44
tp283
a((idata_reader
WeatherData
p284
(dp285
g3
I49
sg4
I15
sg5
F57030.79
sg6
S'Light Rain'
p286
sg8
I1
sg9
F1.3410818059901652
sg10
F0.0
sg11
I2018
sg12
I2
sg13
I56
sb(lp287
F123.11607625817288
aF0.0
aF9.42667488
a(I600
I0
I10
tp288
(lp289
F140.68816552090794
aF0.49200606214316145
aF9.493670080000008
aF57030.79
tp290
a((idata_reader
WeatherData
p291
(dp292
g3
I48
sg4
I16
sg5
F57885.46
sg6
S'Rain'
p293
sg8
I1
sg9
F2.235136343316942
sg10
F0.0
sg11
I2018
sg12
I2
sg13
I56
sb(lp294
F569.9818345285782
aF0.0
aF9.42667488
a(I100
I0
I9
tp295
(lp296
F610.6700000494861
aF0.49200606214316145
aF9.920344960000008
aF57885.46
tp297
a((idata_reader
WeatherData
p298
(dp299
g3
I49
sg4
I17
sg5
F60183.75
sg6
S'Cloudy'
p300
sg8
I1
sg9
F2.6821636119803305
sg10
F0.0
sg11
I2018
sg12
I2
sg13
I56
sb(lp301
F984.928610065383
aF0.0
aF9.42667488
a(I600
I0
I9
tp302
(lp303
F995.5986101148692
aF0.49200606214316145
aF10.347019840000009
aF60183.75
tp304
a((idata_reader
WeatherData
p305
(dp306
g3
I48
sg4
I18
sg5
F61948.68
sg6
S'Cloudy'
p307
sg8
I1
sg9
F2.235136343316942
sg10
F0.0
sg11
I2018
sg12
I2
sg13
I56
sb(lp308
F569.9818345285782
aF0.0
aF9.42667488
a(I950
I0
I10
tp309
(lp310
F615.5804446434474
aF0.49200606214316145
aF9.773694720000009
aF61948.68
tp311
a((idata_reader
WeatherData
p312
(dp313
g3
I48
sg4
I19
sg5
F61781.61
sg6
S'Cloudy'
p314
sg8
I1
sg9
F2.235136343316942
sg10
F0.0
sg11
I2018
sg12
I2
sg13
I56
sb(lp315
F569.9818345285782
aF0.0
aF9.42667488
a(I600
I0
I9
tp316
(lp317
F585.5622791720257
aF0.49200606214316145
aF10.200369600000009
aF61781.61
tp318
a((idata_reader
WeatherData
p319
(dp320
g3
I48
sg4
I20
sg5
F61125.41
sg6
S'Light Rain'
p321
sg8
I1
sg9
F0.0
sg10
F0.0
sg11
I2018
sg12
I2
sg13
I56
sb(lp322
F0.0
aF0.0
aF9.42667488
a(I550
I0
I10
tp323
(lp324
F35.56227917202568
aF0.49200606214316145
aF9.62704448000001
aF61125.41
tp325
a((idata_reader
WeatherData
p326
(dp327
g3
I48
sg4
I21
sg5
F59549.12
sg6
S'Light Rain'
p328
sg8
I1
sg9
F7.152436298614215
sg10
F0.0
sg11
I2018
sg12
I2
sg13
I56
sb(lp329
F18677.164753832454
aF0.0
aF9.42667488
a(I35
I0
I9
tp330
(lp331
F18677.72703300448
aF0.49200606214316145
aF10.05371936000001
aF59549.12
tp332
a((idata_reader
WeatherData
p333
(dp334
g3
I48
sg4
I22
sg5
F56984.71
sg6
S'Light Rain'
p335
sg8
I1
sg9
F5.81135449262405
sg10
F0.0
sg11
I2018
sg12
I2
sg13
I56
sb(lp336
F10018.000723674291
aF0.0
aF9.42667488
a(I18500
I0
I10
tp337
(lp338
F10195.727756678772
aF0.49200606214316145
aF9.48039424000001
aF56984.71
tp339
a((idata_reader
WeatherData
p340
(dp341
g3
I49
sg4
I23
sg5
F54990.74
sg6
S'Cloudy'
p342
sg8
I1
sg9
F3.5762181493071075
sg10
F0.0
sg11
I2018
sg12
I2
sg13
I56
sb(lp343
F2334.6455942290568
aF0.0
aF9.42667488
a(I10100
I0
I9
tp344
(lp345
F2430.3733509078293
aF0.49200606214316145
aF9.90706912000001
aF54990.74
tp346
a((idata_reader
WeatherData
p347
(dp348
g3
I49
sg4
I0
sg5
F53932.18
sg6
S'Cloudy'
p349
sg8
I1
sg9
F3.5762181493071075
sg10
F0.0
sg11
I2018
sg12
I3
sg13
I56
sb(lp350
F2334.6455942290568
aF0.0
aF9.42667488
a(I2400
I0
I9
tp351
(lp352
F2365.018945136886
aF0.49200606214316145
aF10.33374400000001
aF53932.18
tp353
a((idata_reader
WeatherData
p354
(dp355
g3
I50
sg4
I1
sg5
F53706.43
sg6
S'Cloudy'
p356
sg8
I1
sg9
F5.364327223960661
sg10
F0.4069940481078961
sg11
I2018
sg12
I3
sg13
I56
sb(lp357
F7879.428880523064
aF43.95535719565278
aF9.42667488
a(I1700
I0
I10
tp358
(lp359
F8544.44782565995
aF44.44736325779594
aF9.76041888000001
aF53706.43
tp360
a((idata_reader
WeatherData
p361
(dp362
g3
I51
sg4
I2
sg5
F53907.18
sg6
S'Cloudy'
p363
sg8
I1
sg9
F4.023245417970496
sg10
F0.5656853715838507
sg11
I2018
sg12
I3
sg13
I56
sb(lp364
F3324.134058970669
aF61.09402013105587
aF9.42667488
a(I8000
I44
I9
tp365
(lp366
F3868.5818846306192
aF61.54138338885181
aF10.18709376000001
aF53907.18
tp367
a((idata_reader
WeatherData
p368
(dp369
g3
I52
sg4
I3
sg5
F54627.45
sg6
S'Cloudy'
p370
sg8
I1
sg9
F5.81135449262405
sg10
F0.6727170772428335
sg11
I2018
sg12
I3
sg13
I56
sb(lp371
F10018.000723674291
aF72.65344434222601
aF9.42667488
a(I3800
I61
I10
tp372
(lp373
F10086.58260830491
aF73.19482773107782
aF9.61376864000001
aF54627.45
tp374
a((idata_reader
WeatherData
p375
(dp376
g3
I53
sg4
I4
sg5
F55927.54
sg6
S'Light Rain'
p377
sg8
I1
sg9
F8.940545373267769
sg10
F0.8375443205172827
sg11
I2018
sg12
I3
sg13
I56
sb(lp378
F36478.83740982901
aF90.45478661586652
aF9.42667488
a(I9400
I73
I9
tp379
(lp380
F37165.42001813392
aF90.64961434694435
aF10.04044352000001
aF55927.54
tp381
a((idata_reader
WeatherData
p382
(dp383
g3
I53
sg4
I5
sg5
F58500.39
sg6
S'Light Rain'
p384
sg8
I1
sg9
F7.152436298614215
sg10
F0.8845336976068887
sg11
I2018
sg12
I3
sg13
I56
sb(lp385
F18677.164753832454
aF95.52963934154397
aF9.42667488
a(I36700
I90
I10
tp386
(lp387
F19142.584771966373
aF96.17925368848832
aF9.467118400000011
aF58500.39
tp388
a((idata_reader
WeatherData
p389
(dp390
g3
I53
sg4
I6
sg5
F61855.52
sg6
S'Light Rain'
p391
sg8
I1
sg9
F6.258381761287438
sg10
F0.8999999999999759
sg11
I2018
sg12
I3
sg13
I56
sb(lp392
F12512.241231571354
aF97.19999999999739
aF9.42667488
a(I18500
I96
I9
tp393
(lp394
F13154.826003537726
aF97.3792536884857
aF9.893793280000011
aF61855.52
tp395
a((idata_reader
WeatherData
p396
(dp397
g3
I53
sg4
I7
sg5
F62889.97
sg6
S'Light Rain'
p398
sg8
I1
sg9
F6.258381761287438
sg10
F0.8845337750605631
sg11
I2018
sg12
I3
sg13
I56
sb(lp399
F12512.241231571354
aF95.52964770654081
aF9.42667488
a(I12900
I97
I9
tp400
(lp401
F12767.06723510908
aF95.90890139502652
aF10.320468160000011
aF62889.97
tp402
a((idata_reader
WeatherData
p403
(dp404
g3
I53
sg4
I8
sg5
F61351.86
sg6
S'Rain'
p405
sg8
I1
sg9
F7.599463567277604
sg10
F0.6514234833096932
sg11
I2018
sg12
I3
sg13
I56
sb(lp406
F22402.566024311243
aF70.35373619744686
aF9.42667488
a(I12200
I95
I10
tp407
(lp408
F22969.633259420323
aF71.26263759247338
aF9.747143040000012
aF61351.86
tp409
a((idata_reader
WeatherData
p410
(dp411
g3
I56
sg4
I9
sg5
F58605.55
sg6
S'Light Rain / Windy'
p412
sg8
I1
sg9
F10.728654447921322
sg10
F0.7568069592187184
sg11
I2018
sg12
I3
sg13
I56
sb(lp413
F63035.431044184515
aF81.73515159562159
aF9.42667488
a(I22700
I71
I9
tp414
(lp415
F63305.06430360484
aF81.99778918809497
aF10.173817920000012
aF58605.55
tp416
a((idata_reader
WeatherData
p417
(dp418
g3
I57
sg4
I10
sg5
F55573.31
sg6
S'Light Rain / Windy'
p419
sg8
I1
sg9
F13.410818059901654
sg10
F0.636396403248055
sg11
I2018
sg12
I3
sg13
I56
sb(lp420
F123116.07625817295
aF68.73081155078994
aF9.42667488
a(I54900
I81
I10
tp421
(lp422
F131521.1405617778
aF69.72860073888491
aF9.600492800000012
aF55573.31
tp423
a((idata_reader
WeatherData
p424
(dp425
g3
I55
sg4
I11
sg5
F52365.4
sg6
S'Light Rain'
p426
sg8
I1
sg9
F8.940545373267769
sg10
F0.45786886254423953
sg11
I2018
sg12
I3
sg13
I56
sb(lp427
F36478.83740982901
aF49.44983715477787
aF9.42667488
a(I52100
I69
I9
tp428
(lp429
F115899.97797160682
aF50.178437893662775
aF10.027167680000012
aF52365.4
tp430
a((idata_reader
WeatherData
p431
(dp432
g3
I57
sg4
I12
sg5
F49273.12
sg6
S'Light Rain / Windy'
p433
sg8
I1
sg9
F12.516763522574877
sg10
F0.0007276041041608795
sg11
I2018
sg12
I3
sg13
I56
sb(lp434
F100097.92985257083
aF0.07858124324937499
aF9.42667488
a(I48600
I50
I10
tp435
(lp436
F167397.90782417764
aF0.2570191369121496
aF9.453842560000012
aF49273.12
tp437
a((idata_reader
WeatherData
p438
(dp439
g3
I58
sg4
I13
sg5
F46785.44
sg6
S'Light Rain / Windy'
p440
sg8
I1
sg9
F16.98703620920876
sg10
F0.0
sg11
I2018
sg12
I3
sg13
I56
sb(lp441
F250208.34579401714
aF0.0
aF9.42667488
a(I46500
I0
I9
tp442
(lp443
F371106.2536181948
aF0.2570191369121496
aF9.880517440000013
aF46785.44
tp444
a((idata_reader
WeatherData
p445
(dp446
g3
I58
sg4
I14
sg5
F44595.06
sg6
S'Light Rain / Windy'
p447
sg8
I1
sg9
F12.963790791238265
sg10
F0.0
sg11
I2018
sg12
I3
sg13
I56
sb(lp448
F111210.29569853997
aF0.0
aF9.42667488
a(I44400
I0
I9
tp449
(lp450
F437916.5493167348
aF0.2570191369121496
aF10.307192320000013
aF44595.06
tp451
a((idata_reader
WeatherData
p452
(dp453
g3
I58
sg4
I15
sg5
F43241.16
sg6
S'Cloudy / Windy'
p454
sg8
I1
sg9
F12.516763522574877
sg10
F0.0
sg11
I2018
sg12
I3
sg13
I56
sb(lp455
F100097.92985257083
aF0.0
aF9.42667488
a(I43000
I0
I10
tp456
(lp457
F495014.4791693056
aF0.2570191369121496
aF9.733867200000013
aF43241.16
tp458
a((idata_reader
WeatherData
p459
(dp460
g3
I58
sg4
I16
sg5
F43164.5
sg6
S'Light Rain / Windy'
p461
sg8
I1
sg9
F10.281627179257935
sg10
F0.0
sg11
I2018
sg12
I3
sg13
I56
sb(lp462
F55479.751845673716
aF0.0
aF9.42667488
a(I43000
I0
I9
tp463
(lp464
F507494.2310149793
aF0.2570191369121496
aF10.160542080000013
aF43164.5
tp465
a((idata_reader
WeatherData
p466
(dp467
g3
I58
sg4
I17
sg5
F45729.57
sg6
S'Light Rain / Windy'
p468
sg8
I1
sg9
F12.516763522574877
sg10
F0.0
sg11
I2018
sg12
I3
sg13
I56
sb(lp469
F100097.92985257083
aF0.0
aF9.42667488
a(I45100
I0
I10
tp470
(lp471
F562492.1608675502
aF0.2570191369121496
aF9.587216960000013
aF45729.57
tp472
a((idata_reader
WeatherData
p473
(dp474
g3
I58
sg4
I18
sg5
F49544.06
sg6
S'Light Rain'
p475
sg8
I1
sg9
F7.152436298614215
sg10
F0.0
sg11
I2018
sg12
I3
sg13
I56
sb(lp476
F18677.164753832454
aF0.0
aF9.42667488
a(I49300
I0
I9
tp477
(lp478
F531869.3256213827
aF0.2570191369121496
aF10.013891840000014
aF49544.06
tp479
a((idata_reader
WeatherData
p480
(dp481
g3
I58
sg4
I19
sg5
F50707.82
sg6
S'Cloudy'
p482
sg8
I1
sg9
F7.599463567277604
sg10
F0.0
sg11
I2018
sg12
I3
sg13
I56
sb(lp483
F22402.566024311243
aF0.0
aF9.42667488
a(I50700
I0
I7
tp484
(lp485
F503571.8916456939
aF0.2570191369121496
aF12.440566720000014
aF50707.82
tp486
a((idata_reader
WeatherData
p487
(dp488
g3
I58
sg4
I20
sg5
F51398.18
sg6
S'Light Rain'
p489
sg8
I1
sg9
F5.364327223960661
sg10
F0.0
sg11
I2018
sg12
I3
sg13
I56
sb(lp490
F7879.428880523064
aF0.0
aF9.42667488
a(I50700
I0
I12
tp491
(lp492
F460751.320526217
aF0.2570191369121496
aF9.867241600000014
aF51398.18
tp493
a((idata_reader
WeatherData
p494
(dp495
g3
I57
sg4
I21
sg5
F51088.65
sg6
S'Light Rain'
p496
sg8
I1
sg9
F4.023245417970496
sg10
F0.0
sg11
I2018
sg12
I3
sg13
I56
sb(lp497
F3324.134058970669
aF0.0
aF9.42667488
a(I50700
I0
I9
tp498
(lp499
F413375.45458518766
aF0.2570191369121496
aF10.293916480000014
aF51088.65
tp500
a((idata_reader
WeatherData
p501
(dp502
g3
I56
sg4
I22
sg5
F49504.11
sg6
S'Cloudy'
p503
sg8
I1
sg9
F5.364327223960661
sg10
F0.0
sg11
I2018
sg12
I3
sg13
I56
sb(lp504
F7879.428880523064
aF0.0
aF9.42667488
a(I49300
I0
I10
tp505
(lp506
F371954.88346571074
aF0.2570191369121496
aF9.720591360000014
aF49504.11
tp507
a((idata_reader
WeatherData
p508
(dp509
g3
I54
sg4
I23
sg5
F48096.87
sg6
S'Light Rain'
p510
sg8
I1
sg9
F2.235136343316942
sg10
F0.0
sg11
I2018
sg12
I3
sg13
I56
sb(lp511
F569.9818345285782
aF0.0
aF9.42667488
a(I47900
I0
I9
tp512
(lp513
F324624.8653002393
aF0.2570191369121496
aF10.147266240000015
aF48096.87
tp514
a.